target datalayout = "e-m:e-p270:32:32-p271:32:32-p272:64:64-i64:64-i128:128-f80:128-n8:16:32:64-S128"
target triple = "x86_64-pc-linux-gnu"

%struct.yyguts_t = type { ptr, ptr, ptr, i64, i64, ptr, i8, i32, i32, ptr, i32, i32, i32, i32, i32, ptr, i32, ptr, i32, i32, ptr, i32, i32, ptr }

@yy_meta = internal constant [55 x i8] c"\00\01\02\03\01\01\04\01\01\02\05\06\07\07\07\07\07\07\07\01\01\01\01\08\08\09\0A\0A\0B\09\08\08\08\08\08\08\09\09\09\09\09\09\09\09\09\09\09\09\09\09\0A\09\09\01\01", align 16

; Function Attrs: nounwind uwtable
define internal i32 @yy_get_previous_state(ptr noundef %0) #0 {
  %2 = alloca ptr, align 8
  %3 = alloca i32, align 4
  %4 = alloca ptr, align 8
  %5 = alloca ptr, align 8
  %6 = alloca i8, align 1
  store ptr %0, ptr %2, align 8
  %7 = load ptr, ptr %2, align 8
  store ptr %7, ptr %5, align 8
  %8 = load ptr, ptr %5, align 8
  %9 = getelementptr inbounds %struct.yyguts_t, ptr %8, i32 0, i32 11
  %10 = load i32, ptr %9, align 4
  store i32 %10, ptr %3, align 4
  %11 = load ptr, ptr %5, align 8
  %12 = getelementptr inbounds %struct.yyguts_t, ptr %11, i32 0, i32 20
  %13 = load ptr, ptr %12, align 8
  %14 = getelementptr inbounds i8, ptr %13, i64 0
  store ptr %14, ptr %4, align 8
  br label %15

15:                                               ; preds = %92, %1
  %16 = load ptr, ptr %4, align 8
  %17 = load ptr, ptr %5, align 8
  %18 = getelementptr inbounds %struct.yyguts_t, ptr %17, i32 0, i32 9
  %19 = load ptr, ptr %18, align 8
  %20 = icmp ult ptr %16, %19
  br i1 %20, label %21, label %95

21:                                               ; preds = %15
  %22 = load ptr, ptr %4, align 8
  %23 = load i8, ptr %22, align 1
  %24 = sext i8 %23 to i32
  %25 = icmp ne i32 %24, 0
  br i1 %25, label %26, label %33

26:                                               ; preds = %21
  %27 = load ptr, ptr %4, align 8
  %28 = load i8, ptr %27, align 1
  %29 = zext i8 %28 to i64
  %30 = getelementptr inbounds [256 x i8], ptr @yy_ec, i64 0, i64 %29
  %31 = load i8, ptr %30, align 1
  %32 = zext i8 %31 to i32
  br label %34

33:                                               ; preds = %21
  br label %34

34:                                               ; preds = %33, %26
  %35 = phi i32 [ %32, %26 ], [ 1, %33 ]
  %36 = trunc i32 %35 to i8
  store i8 %36, ptr %6, align 1
  %37 = load i32, ptr %3, align 4
  %38 = sext i32 %37 to i64
  %39 = getelementptr inbounds [219 x i16], ptr @yy_accept, i64 0, i64 %38
  %40 = load i16, ptr %39, align 2
  %41 = icmp ne i16 %40, 0
  br i1 %41, label %42, label %49

42:                                               ; preds = %34
  %43 = load i32, ptr %3, align 4
  %44 = load ptr, ptr %5, align 8
  %45 = getelementptr inbounds %struct.yyguts_t, ptr %44, i32 0, i32 16
  store i32 %43, ptr %45, align 8
  %46 = load ptr, ptr %4, align 8
  %47 = load ptr, ptr %5, align 8
  %48 = getelementptr inbounds %struct.yyguts_t, ptr %47, i32 0, i32 17
  store ptr %46, ptr %48, align 8
  br label %49

49:                                               ; preds = %42, %34
  br label %50

50:                                               ; preds = %78, %49
  %51 = load i32, ptr %3, align 4
  %52 = sext i32 %51 to i64
  %53 = getelementptr inbounds [238 x i16], ptr @yy_base, i64 0, i64 %52
  %54 = load i16, ptr %53, align 2
  %55 = sext i16 %54 to i32
  %56 = load i8, ptr %6, align 1
  %57 = zext i8 %56 to i32
  %58 = add nsw i32 %55, %57
  %59 = sext i32 %58 to i64
  %60 = getelementptr inbounds [412 x i16], ptr @yy_chk, i64 0, i64 %59
  %61 = load i16, ptr %60, align 2
  %62 = sext i16 %61 to i32
  %63 = load i32, ptr %3, align 4
  %64 = icmp ne i32 %62, %63
  br i1 %64, label %65, label %79

65:                                               ; preds = %50
  %66 = load i32, ptr %3, align 4
  %67 = sext i32 %66 to i64
  %68 = getelementptr inbounds [238 x i16], ptr @yy_def, i64 0, i64 %67
  %69 = load i16, ptr %68, align 2
  %70 = sext i16 %69 to i32
  store i32 %70, ptr %3, align 4
  %71 = load i32, ptr %3, align 4
  %72 = icmp sge i32 %71, 219
  br i1 %72, label %73, label %78

73:                                               ; preds = %65
  %74 = load i8, ptr %6, align 1
  %75 = zext i8 %74 to i64
  %76 = getelementptr inbounds [55 x i8], ptr @yy_meta, i64 0, i64 %75
  %77 = load i8, ptr %76, align 1
  store i8 %77, ptr %6, align 1
  br label %78

78:                                               ; preds = %73, %65
  br label %50

79:                                               ; preds = %50
  %80 = load i32, ptr %3, align 4
  %81 = sext i32 %80 to i64
  %82 = getelementptr inbounds [238 x i16], ptr @yy_base, i64 0, i64 %81
  %83 = load i16, ptr %82, align 2
  %84 = sext i16 %83 to i32
  %85 = load i8, ptr %6, align 1
  %86 = zext i8 %85 to i32
  %87 = add nsw i32 %84, %86
  %88 = sext i32 %87 to i64
  %89 = getelementptr inbounds [412 x i16], ptr @yy_nxt, i64 0, i64 %88
  %90 = load i16, ptr %89, align 2
  %91 = sext i16 %90 to i32
  store i32 %91, ptr %3, align 4
  br label %92

92:                                               ; preds = %79
  %93 = load ptr, ptr %4, align 8
  %94 = getelementptr inbounds i8, ptr %93, i32 1
  store ptr %94, ptr %4, align 8
  br label %15

95:                                               ; preds = %15
  %96 = load i32, ptr %3, align 4
  ret i32 %96
}