; Function Attrs: nofree norecurse nosync nounwind memory(read, argmem: readwrite, inaccessiblemem: none) uwtable
define internal fastcc i32 @yy_get_previous_state(ptr nocapture noundef %0) unnamed_addr #8 {
  %2 = getelementptr inbounds i8, ptr %0, i64 76
  %3 = load i32, ptr %2, align 4
  %4 = getelementptr inbounds i8, ptr %0, i64 128
  %5 = load ptr, ptr %4, align 8
  %6 = getelementptr inbounds i8, ptr %0, i64 64
  %7 = load ptr, ptr %6, align 8
  %8 = icmp ult ptr %5, %7
  br i1 %8, label %.lr.ph31, label %._crit_edge32

.lr.ph31:                                         ; preds = %1
  %9 = getelementptr inbounds i8, ptr %0, i64 104
  %10 = getelementptr inbounds i8, ptr %0, i64 112
  br label %11

11:                                               ; preds = %.lr.ph31, %._crit_edge
  %.02129 = phi i32 [ %3, %.lr.ph31 ], [ %51, %._crit_edge ]
  %.02328 = phi ptr [ %5, %.lr.ph31 ], [ %52, %._crit_edge ]
  %12 = load i8, ptr %.02328, align 1
  %.not = icmp eq i8 %12, 0
  br i1 %.not, label %17, label %13

13:                                               ; preds = %11
  %14 = zext i8 %12 to i64
  %15 = getelementptr inbounds [256 x i8], ptr @yy_ec, i64 0, i64 %14
  %16 = load i8, ptr %15, align 1
  br label %17

17:                                               ; preds = %11, %13
  %18 = phi i8 [ %16, %13 ], [ 1, %11 ]
  %19 = sext i32 %.02129 to i64
  %20 = getelementptr inbounds [219 x i16], ptr @yy_accept, i64 0, i64 %19
  %21 = load i16, ptr %20, align 2
  %.not24 = icmp eq i16 %21, 0
  br i1 %.not24, label %23, label %22

22:                                               ; preds = %17
  store i32 %.02129, ptr %9, align 8
  store ptr %.02328, ptr %10, align 8
  br label %23

23:                                               ; preds = %22, %17
  %24 = getelementptr inbounds [238 x i16], ptr @yy_base, i64 0, i64 %19
  %25 = load i16, ptr %24, align 2
  %26 = sext i16 %25 to i64
  %27 = zext i8 %18 to i64
  %28 = add nsw i64 %26, %27
  %29 = getelementptr inbounds [412 x i16], ptr @yy_chk, i64 0, i64 %28
  %30 = load i16, ptr %29, align 2
  %31 = sext i16 %30 to i32
  %.not2526 = icmp eq i32 %.02129, %31
  br i1 %.not2526, label %._crit_edge, label %.lr.ph

.lr.ph:                                           ; preds = %23, %40
  %32 = phi i64 [ %45, %40 ], [ %27, %23 ]
  %33 = phi i64 [ %41, %40 ], [ %19, %23 ]
  %.027 = phi i8 [ %.1, %40 ], [ %18, %23 ]
  %34 = getelementptr inbounds [238 x i16], ptr @yy_def, i64 0, i64 %33
  %35 = load i16, ptr %34, align 2
  %36 = icmp sgt i16 %35, 218
  br i1 %36, label %37, label %40

37:                                               ; preds = %.lr.ph
  %38 = getelementptr inbounds [55 x i8], ptr @yy_meta, i64 0, i64 %32
  %39 = load i8, ptr %38, align 1
  br label %40

40:                                               ; preds = %37, %.lr.ph
  %.1 = phi i8 [ %39, %37 ], [ %.027, %.lr.ph ]
  %41 = sext i16 %35 to i64
  %42 = getelementptr inbounds [238 x i16], ptr @yy_base, i64 0, i64 %41
  %43 = load i16, ptr %42, align 2
  %44 = sext i16 %43 to i64
  %45 = zext i8 %.1 to i64
  %46 = add nsw i64 %44, %45
  %47 = getelementptr inbounds [412 x i16], ptr @yy_chk, i64 0, i64 %46
  %48 = load i16, ptr %47, align 2
  %.not25 = icmp eq i16 %35, %48
  br i1 %.not25, label %._crit_edge, label %.lr.ph

._crit_edge:                                      ; preds = %40, %23
  %.lcssa = phi i64 [ %28, %23 ], [ %46, %40 ]
  %49 = getelementptr inbounds [412 x i16], ptr @yy_nxt, i64 0, i64 %.lcssa
  %50 = load i16, ptr %49, align 2
  %51 = sext i16 %50 to i32
  %52 = getelementptr inbounds i8, ptr %.02328, i64 1
  %exitcond.not = icmp eq ptr %52, %7
  br i1 %exitcond.not, label %._crit_edge32, label %11

._crit_edge32:                                    ; preds = %._crit_edge, %1
  %.021.lcssa = phi i32 [ %3, %1 ], [ %51, %._crit_edge ]
  ret i32 %.021.lcssa
}